target datalayout = "e-m:e-p270:32:32-p271:32:32-p272:64:64-i64:64-i128:128-f80:128-n8:16:32:64-S128"
target triple = "x86_64-pc-linux-gnu"

%struct._zend_llist = type { ptr, ptr, i64, i64, ptr, i8, ptr }
%struct._zend_stack = type { i32, i32, i32, ptr }
%struct._zend_array = type { %struct._zend_refcounted_h, %union.anon.4, i32, %union.anon.6, i32, i32, i32, i32, i64, ptr }
%struct._zend_refcounted_h = type { i32, %union.anon.3 }
%union.anon.3 = type { i32 }
%union.anon.4 = type { i32 }
%union.anon.6 = type { ptr }
%struct._zend_compiler_globals = type { %struct._zend_stack, ptr, ptr, i32, ptr, ptr, ptr, ptr, i8, i8, i8, i8, i8, %struct._zend_llist, ptr, i8, i8, i8, i8, ptr, i32, i32, %struct._zend_oparray_context, %struct._zend_file_context, ptr, %struct._zend_array, ptr, i64, i8, i8, i8, ptr, ptr, %struct._zend_stack, ptr, i32, ptr, ptr, i64, i64, ptr, ptr, ptr, ptr, i32, ptr, i32, %struct._zend_stack }
%struct._zend_oparray_context = type { ptr, ptr, i32, i32, i32, i32, i32, i32, i32, ptr, ptr, ptr, i32, i8 }
%struct._zend_file_context = type { %struct._zend_declarables, ptr, i8, i8, ptr, ptr, ptr, %struct._zend_array }
%struct._zend_declarables = type { i64 }
%struct.anon.7 = type { i8, [3 x i8], i32, ptr, ptr, ptr, i32, i32, ptr, ptr, ptr, ptr, i32, ptr }

@zend_observers_fcall_list = internal global %struct._zend_llist zeroinitializer, align 8
@zend_observer_fcall_op_array_extension = dso_local global i32 0, align 4
@zend_observer_fcall_internal_function_extension = dso_local global i32 0, align 4
@compiler_globals = external global %struct._zend_compiler_globals, align 8

; Function Attrs: nounwind uwtable
define dso_local void @zend_observer_add_begin_handler(ptr noundef %0, ptr noundef %1) #0 {
  %3 = alloca ptr, align 8
  %4 = alloca ptr, align 8
  %5 = alloca i64, align 8
  %6 = alloca ptr, align 8
  %7 = alloca ptr, align 8
  %8 = alloca ptr, align 8
  %9 = alloca i32, align 4
  store ptr %0, ptr %3, align 8, !tbaa !75
  store ptr %1, ptr %4, align 8, !tbaa !4
  call void @llvm.lifetime.start.p0(i64 8, ptr %5) #8
  %10 = load i64, ptr getelementptr inbounds nuw (%struct._zend_llist, ptr @zend_observers_fcall_list, i32 0, i32 2), align 8, !tbaa !10
  store i64 %10, ptr %5, align 8, !tbaa !36
  call void @llvm.lifetime.start.p0(i64 8, ptr %6) #8
  %11 = load ptr, ptr %3, align 8, !tbaa !75
  %12 = getelementptr inbounds nuw %struct.anon.7, ptr %11, i32 0, i32 10
  %13 = load ptr, ptr %12, align 8, !tbaa !35
  %14 = ptrtoint ptr %13 to i64
  %15 = and i64 %14, 1
  %16 = icmp ne i64 %15, 0
  br i1 %16, label %17, label %25

17:                                               ; preds = %2
  %18 = load ptr, ptr getelementptr inbounds nuw (%struct._zend_compiler_globals, ptr @compiler_globals, i32 0, i32 37), align 8, !tbaa !76
  %19 = load ptr, ptr %3, align 8, !tbaa !75
  %20 = getelementptr inbounds nuw %struct.anon.7, ptr %19, i32 0, i32 10
  %21 = load ptr, ptr %20, align 8, !tbaa !35
  %22 = ptrtoint ptr %21 to i64
  %23 = getelementptr inbounds i8, ptr %18, i64 %22
  %24 = load ptr, ptr %23, align 8, !tbaa !4
  br label %29

25:                                               ; preds = %2
  %26 = load ptr, ptr %3, align 8, !tbaa !75
  %27 = getelementptr inbounds nuw %struct.anon.7, ptr %26, i32 0, i32 10
  %28 = load ptr, ptr %27, align 8, !tbaa !35
  br label %29

29:                                               ; preds = %25, %17
  %30 = phi ptr [ %24, %17 ], [ %28, %25 ]
  %31 = load ptr, ptr %3, align 8, !tbaa !75
  %32 = load i8, ptr %31, align 8, !tbaa !35
  %33 = zext i8 %32 to i32
  %34 = icmp ne i32 %33, 1
  br i1 %34, label %35, label %37

35:                                               ; preds = %29
  %36 = load i32, ptr @zend_observer_fcall_op_array_extension, align 4, !tbaa !8
  br label %39

37:                                               ; preds = %29
  %38 = load i32, ptr @zend_observer_fcall_internal_function_extension, align 4, !tbaa !8
  br label %39

39:                                               ; preds = %37, %35
  %40 = phi i32 [ %36, %35 ], [ %38, %37 ]
  %41 = sext i32 %40 to i64
  %42 = getelementptr inbounds ptr, ptr %30, i64 %41
  store ptr %42, ptr %6, align 8, !tbaa !4
  call void @llvm.lifetime.start.p0(i64 8, ptr %7) #8
  %43 = load ptr, ptr %6, align 8, !tbaa !4
  %44 = load i64, ptr %5, align 8, !tbaa !36
  %45 = getelementptr inbounds nuw ptr, ptr %43, i64 %44
  %46 = getelementptr inbounds ptr, ptr %45, i64 -1
  store ptr %46, ptr %7, align 8, !tbaa !4
  %47 = load ptr, ptr %6, align 8, !tbaa !4
  %48 = load ptr, ptr %47, align 8, !tbaa !4
  %49 = icmp eq ptr %48, inttoptr (i64 2 to ptr)
  br i1 %49, label %54, label %50

50:                                               ; preds = %39
  %51 = load ptr, ptr %6, align 8, !tbaa !4
  %52 = load ptr, ptr %51, align 8, !tbaa !4
  %53 = icmp eq ptr %52, inttoptr (i64 3 to ptr)
  br i1 %53, label %54, label %57

54:                                               ; preds = %50, %39
  %55 = load ptr, ptr %4, align 8, !tbaa !4
  %56 = load ptr, ptr %6, align 8, !tbaa !4
  store ptr %55, ptr %56, align 8, !tbaa !4
  br label %79

57:                                               ; preds = %50
  call void @llvm.lifetime.start.p0(i64 8, ptr %8) #8
  %58 = load ptr, ptr %6, align 8, !tbaa !4
  %59 = getelementptr inbounds ptr, ptr %58, i64 1
  store ptr %59, ptr %8, align 8, !tbaa !4
  br label %60

60:                                               ; preds = %73, %57
  %61 = load ptr, ptr %8, align 8, !tbaa !4
  %62 = load ptr, ptr %7, align 8, !tbaa !4
  %63 = icmp ule ptr %61, %62
  br i1 %63, label %65, label %64

64:                                               ; preds = %60
  store i32 2, ptr %9, align 4
  br label %76

65:                                               ; preds = %60
  %66 = load ptr, ptr %8, align 8, !tbaa !4
  %67 = load ptr, ptr %66, align 8, !tbaa !4
  %68 = icmp eq ptr %67, null
  br i1 %68, label %69, label %72

69:                                               ; preds = %65
  %70 = load ptr, ptr %4, align 8, !tbaa !4
  %71 = load ptr, ptr %8, align 8, !tbaa !4
  store ptr %70, ptr %71, align 8, !tbaa !4
  store i32 1, ptr %9, align 4
  br label %76

72:                                               ; preds = %65
  br label %73

73:                                               ; preds = %72
  %74 = load ptr, ptr %8, align 8, !tbaa !4
  %75 = getelementptr inbounds nuw ptr, ptr %74, i32 1
  store ptr %75, ptr %8, align 8, !tbaa !4
  br label %60

76:                                               ; preds = %69, %64
  call void @llvm.lifetime.end.p0(i64 8, ptr %8) #8
  %77 = load i32, ptr %9, align 4
  switch i32 %77, label %80 [
    i32 2, label %78
  ]

78:                                               ; preds = %76
  unreachable

79:                                               ; preds = %54
  store i32 0, ptr %9, align 4
  br label %80

80:                                               ; preds = %79, %76
  call void @llvm.lifetime.end.p0(i64 8, ptr %7) #8
  call void @llvm.lifetime.end.p0(i64 8, ptr %6) #8
  call void @llvm.lifetime.end.p0(i64 8, ptr %5) #8
  %81 = load i32, ptr %9, align 4
  switch i32 %81, label %83 [
    i32 0, label %82
    i32 1, label %82
  ]

82:                                               ; preds = %80, %80
  ret void

83:                                               ; preds = %80
  unreachable
}