; Function Attrs: nofree norecurse nosync nounwind memory(readwrite, inaccessiblemem: write) uwtable
define dso_local void @zend_observer_add_begin_handler(ptr noundef readonly captures(none) %0, ptr noundef %1) local_unnamed_addr #4 {
  %3 = load i64, ptr getelementptr inbounds nuw (i8, ptr @zend_observers_fcall_list, i64 16), align 8, !tbaa !10
  %4 = getelementptr inbounds nuw i8, ptr %0, i64 56
  %5 = load ptr, ptr %4, align 8, !tbaa !34
  %6 = ptrtoint ptr %5 to i64
  %7 = and i64 %6, 1
  %.not = icmp eq i64 %7, 0
  br i1 %.not, label %12, label %8

8:                                                ; preds = %2
  %9 = load ptr, ptr getelementptr inbounds nuw (i8, ptr @compiler_globals, i64 512), align 8, !tbaa !68
  %10 = getelementptr inbounds i8, ptr %9, i64 %6
  %11 = load ptr, ptr %10, align 8, !tbaa !4
  br label %12

12:                                               ; preds = %2, %8
  %13 = phi ptr [ %11, %8 ], [ %5, %2 ]
  %14 = load i8, ptr %0, align 8, !tbaa !34
  %.not19 = icmp eq i8 %14, 1
  %15 = load i32, ptr @zend_observer_fcall_op_array_extension, align 4
  %16 = load i32, ptr @zend_observer_fcall_internal_function_extension, align 4
  %17 = select i1 %.not19, i32 %16, i32 %15
  %18 = sext i32 %17 to i64
  %19 = getelementptr inbounds ptr, ptr %13, i64 %18
  %20 = getelementptr inbounds nuw ptr, ptr %19, i64 %3
  %21 = getelementptr inbounds i8, ptr %20, i64 -8
  %22 = load ptr, ptr %19, align 8, !tbaa !4
  %magicptr = ptrtoint ptr %22 to i64
  %23 = and i64 %magicptr, -2
  %switch = icmp eq i64 %23, 2
  br i1 %switch, label %24, label %.preheader

24:                                               ; preds = %12
  store ptr %1, ptr %19, align 8, !tbaa !4
  br label %29

.preheader:                                       ; preds = %12, %25
  %.pn = phi ptr [ %.017, %25 ], [ %19, %12 ]
  %.017 = getelementptr inbounds nuw i8, ptr %.pn, i64 8
  %.not20.not.not.not.not.not = icmp ule ptr %.017, %21
  br i1 %.not20.not.not.not.not.not, label %25, label %.loopexit

25:                                               ; preds = %.preheader
  %26 = load ptr, ptr %.017, align 8, !tbaa !4
  %27 = icmp eq ptr %26, null
  br i1 %27, label %28, label %.preheader

28:                                               ; preds = %25
  store ptr %1, ptr %.017, align 8, !tbaa !4
  br label %.loopexit

.loopexit:                                        ; preds = %.preheader, %28
  tail call void @llvm.assume(i1 %.not20.not.not.not.not.not)
  br label %29

29:                                               ; preds = %.loopexit, %24
  ret void
}